; Function Attrs: inlinehint nounwind uwtable
define internal fastcc i64 @_BlocksOutputBuffer_Grow(ptr noundef nonnull captures(none) %0, ptr noundef writeonly captures(none) %1, i64 noundef range(i64 0, 4294967296) %2) unnamed_addr #4 {
  %4 = load ptr, ptr %0, align 8, !tbaa !29
  %5 = getelementptr i8, ptr %4, i64 16
  %.val = load i64, ptr %5, align 8, !tbaa !25
  %.not = icmp eq i64 %2, 0
  br i1 %.not, label %8, label %6

6:                                                ; preds = %3
  %7 = load ptr, ptr @PyExc_SystemError, align 8, !tbaa !15
  tail call void @PyErr_SetString(ptr noundef %7, ptr noundef nonnull @.str.22) #7
  br label %Py_DECREF.exit29

8:                                                ; preds = %3
  %9 = icmp slt i64 %.val, 17
  br i1 %9, label %10, label %._crit_edge

10:                                               ; preds = %8
  %11 = getelementptr [17 x i64], ptr @BUFFER_BLOCK_SIZE, i64 0, i64 %.val
  %12 = load i64, ptr %11, align 8, !tbaa !61
  br label %._crit_edge

._crit_edge:                                      ; preds = %8, %10
  %.023 = phi i64 [ %12, %10 ], [ 268435456, %8 ]
  %13 = getelementptr inbounds nuw i8, ptr %0, i64 16
  %14 = load i64, ptr %13, align 8, !tbaa !36
  %15 = getelementptr inbounds nuw i8, ptr %0, i64 8
  %16 = load i64, ptr %15, align 8, !tbaa !35
  %17 = sub i64 %14, %16
  %spec.select = tail call i64 @llvm.smin.i64(i64 %.023, i64 %17)
  %18 = icmp slt i64 %14, 0
  %.1 = select i1 %18, i64 %.023, i64 %spec.select
  %19 = getelementptr inbounds nuw i8, ptr %0, i64 8
  %20 = sub i64 9223372036854775807, %16
  %21 = icmp sgt i64 %.1, %20
  br i1 %21, label %22, label %24

22:                                               ; preds = %._crit_edge
  %23 = load ptr, ptr @PyExc_MemoryError, align 8, !tbaa !15
  tail call void @PyErr_SetString(ptr noundef %23, ptr noundef nonnull @unable_allocate_msg) #7
  br label %Py_DECREF.exit29

24:                                               ; preds = %._crit_edge
  %25 = tail call ptr @PyBytes_FromStringAndSize(ptr noundef null, i64 noundef %.1) #7
  %26 = icmp eq ptr %25, null
  br i1 %26, label %27, label %29

27:                                               ; preds = %24
  %28 = load ptr, ptr @PyExc_MemoryError, align 8, !tbaa !15
  tail call void @PyErr_SetString(ptr noundef %28, ptr noundef nonnull @unable_allocate_msg) #7
  br label %Py_DECREF.exit29

29:                                               ; preds = %24
  %30 = load ptr, ptr %0, align 8, !tbaa !29
  %31 = tail call i32 @PyList_Append(ptr noundef %30, ptr noundef nonnull %25) #7
  %32 = icmp slt i32 %31, 0
  %33 = load i32, ptr %25, align 8, !tbaa !14
  %.not.i28 = icmp sgt i32 %33, -1
  br i1 %32, label %34, label %39

34:                                               ; preds = %29
  br i1 %.not.i28, label %35, label %Py_DECREF.exit29

35:                                               ; preds = %34
  %36 = add nsw i32 %33, -1
  store i32 %36, ptr %25, align 8, !tbaa !14
  %37 = icmp eq i32 %36, 0
  br i1 %37, label %38, label %Py_DECREF.exit29

38:                                               ; preds = %35
  tail call void @_Py_Dealloc(ptr noundef nonnull %25) #7
  br label %Py_DECREF.exit29

39:                                               ; preds = %29
  br i1 %.not.i28, label %40, label %Py_DECREF.exit

40:                                               ; preds = %39
  %41 = add nsw i32 %33, -1
  store i32 %41, ptr %25, align 8, !tbaa !14
  %42 = icmp eq i32 %41, 0
  br i1 %42, label %43, label %Py_DECREF.exit

43:                                               ; preds = %40
  tail call void @_Py_Dealloc(ptr noundef nonnull %25) #7
  br label %Py_DECREF.exit

Py_DECREF.exit:                                   ; preds = %39, %40, %43
  %44 = load i64, ptr %19, align 8, !tbaa !35
  %45 = add i64 %44, %.1
  store i64 %45, ptr %19, align 8, !tbaa !35
  %46 = getelementptr inbounds nuw i8, ptr %25, i64 32
  store ptr %46, ptr %1, align 8, !tbaa !37
  br label %Py_DECREF.exit29

Py_DECREF.exit29:                                 ; preds = %38, %35, %34, %Py_DECREF.exit, %27, %22, %6
  %.0 = phi i64 [ -1, %6 ], [ -1, %22 ], [ -1, %27 ], [ %.1, %Py_DECREF.exit ], [ -1, %34 ], [ -1, %35 ], [ -1, %38 ]
  ret i64 %.0
}